; Function Attrs: mustprogress uwtable
define hidden void @_ZN4cvc58internal6theory11quantifiers12SygusExplain25getExplanationForEqualityENS0_12NodeTemplateILb1EEES5_RSt6vectorIS5_SaIS5_EE(ptr noundef nonnull align 8 dereferenceable(24) %this, ptr nocapture noundef readonly %n, ptr nocapture noundef readonly %vn, ptr noundef nonnull align 8 dereferenceable(24) %exp) local_unnamed_addr #3 align 2 personality ptr @__gxx_personality_v0 {
entry:
  %cexc = alloca %"class.std::map.343", align 8
  %agg.tmp = alloca %"class.cvc5::internal::NodeTemplate", align 8
  %agg.tmp2 = alloca %"class.cvc5::internal::NodeTemplate", align 8
  %0 = getelementptr inbounds i8, ptr %cexc, i64 8
  store i32 0, ptr %0, align 8
  %_M_parent.i.i.i.i.i = getelementptr inbounds i8, ptr %cexc, i64 16
  store ptr null, ptr %_M_parent.i.i.i.i.i, align 8
  %_M_left.i.i.i.i.i = getelementptr inbounds i8, ptr %cexc, i64 24
  store ptr %0, ptr %_M_left.i.i.i.i.i, align 8
  %_M_right.i.i.i.i.i = getelementptr inbounds i8, ptr %cexc, i64 32
  store ptr %0, ptr %_M_right.i.i.i.i.i, align 8
  %_M_node_count.i.i.i.i.i = getelementptr inbounds i8, ptr %cexc, i64 40
  store i64 0, ptr %_M_node_count.i.i.i.i.i, align 8
  %1 = load ptr, ptr %n, align 8
  store ptr %1, ptr %agg.tmp, align 8
  %bf.load.i.i = load i64, ptr %1, align 8
  %bf.lshr.i.i = lshr i64 %bf.load.i.i, 40
  %2 = trunc i64 %bf.lshr.i.i to i32
  %bf.cast.i.i = and i32 %2, 1048575
  %cmp.i.i = icmp ult i32 %bf.cast.i.i, 1048574
  br i1 %cmp.i.i, label %if.then.i.i, label %if.else.i.i

if.then.i.i:                                      ; preds = %entry
  %bf.value.i.i = add i64 %bf.load.i.i, 1099511627776
  %bf.shl.i.i = and i64 %bf.value.i.i, 1152920405095219200
  %bf.clear7.i.i = and i64 %bf.load.i.i, -1152920405095219201
  %bf.set.i.i = or disjoint i64 %bf.shl.i.i, %bf.clear7.i.i
  store i64 %bf.set.i.i, ptr %1, align 8
  br label %invoke.cont

if.else.i.i:                                      ; preds = %entry
  %cmp12.i.i = icmp eq i32 %bf.cast.i.i, 1048574
  br i1 %cmp12.i.i, label %if.then13.i.i, label %invoke.cont

if.then13.i.i:                                    ; preds = %if.else.i.i
  %bf.set23.i.i = or i64 %bf.load.i.i, 1152920405095219200
  store i64 %bf.set23.i.i, ptr %1, align 8
  invoke void @_ZN4cvc58internal4expr9NodeValue20markRefCountMaxedOutEv(ptr noundef nonnull align 8 dereferenceable(16) %1)
          to label %invoke.cont unwind label %lpad

invoke.cont:                                      ; preds = %if.else.i.i, %if.then.i.i, %if.then13.i.i
  %3 = load ptr, ptr %vn, align 8
  store ptr %3, ptr %agg.tmp2, align 8
  %bf.load.i.i3 = load i64, ptr %3, align 8
  %bf.lshr.i.i4 = lshr i64 %bf.load.i.i3, 40
  %4 = trunc i64 %bf.lshr.i.i4 to i32
  %bf.cast.i.i5 = and i32 %4, 1048575
  %cmp.i.i6 = icmp ult i32 %bf.cast.i.i5, 1048574
  br i1 %cmp.i.i6, label %if.then.i.i11, label %if.else.i.i7

if.then.i.i11:                                    ; preds = %invoke.cont
  %bf.value.i.i12 = add i64 %bf.load.i.i3, 1099511627776
  %bf.shl.i.i13 = and i64 %bf.value.i.i12, 1152920405095219200
  %bf.clear7.i.i14 = and i64 %bf.load.i.i3, -1152920405095219201
  %bf.set.i.i15 = or disjoint i64 %bf.shl.i.i13, %bf.clear7.i.i14
  store i64 %bf.set.i.i15, ptr %3, align 8
  br label %invoke.cont4

if.else.i.i7:                                     ; preds = %invoke.cont
  %cmp12.i.i8 = icmp eq i32 %bf.cast.i.i5, 1048574
  br i1 %cmp12.i.i8, label %if.then13.i.i9, label %invoke.cont4

if.then13.i.i9:                                   ; preds = %if.else.i.i7
  %bf.set23.i.i10 = or i64 %bf.load.i.i3, 1152920405095219200
  store i64 %bf.set23.i.i10, ptr %3, align 8
  invoke void @_ZN4cvc58internal4expr9NodeValue20markRefCountMaxedOutEv(ptr noundef nonnull align 8 dereferenceable(16) %3)
          to label %invoke.cont4 unwind label %lpad3

invoke.cont4:                                     ; preds = %if.else.i.i7, %if.then.i.i11, %if.then13.i.i9
  invoke void @_ZN4cvc58internal6theory11quantifiers12SygusExplain25getExplanationForEqualityENS0_12NodeTemplateILb1EEES5_RSt6vectorIS5_SaIS5_EERSt3mapIjbSt4lessIjESaISt4pairIKjbEEE(ptr noundef nonnull align 8 dereferenceable(24) %this, ptr noundef nonnull %agg.tmp, ptr noundef nonnull %agg.tmp2, ptr noundef nonnull align 8 dereferenceable(24) %exp, ptr noundef nonnull align 8 dereferenceable(48) %cexc)
          to label %invoke.cont6 unwind label %lpad5

invoke.cont6:                                     ; preds = %invoke.cont4
  %5 = load ptr, ptr %agg.tmp2, align 8
  %bf.load.i.i18 = load i64, ptr %5, align 8
  %6 = and i64 %bf.load.i.i18, 1152920405095219200
  %cmp.not.i.i = icmp eq i64 %6, 1152920405095219200
  br i1 %cmp.not.i.i, label %_ZN4cvc58internal12NodeTemplateILb1EED2Ev.exit, label %if.then.i.i19

if.then.i.i19:                                    ; preds = %invoke.cont6
  %bf.value.i.i20 = add i64 %bf.load.i.i18, 1152920405095219200
  %bf.shl.i.i21 = and i64 %bf.value.i.i20, 1152920405095219200
  %bf.clear7.i.i22 = and i64 %bf.load.i.i18, -1152920405095219201
  %bf.set.i.i23 = or disjoint i64 %bf.shl.i.i21, %bf.clear7.i.i22
  store i64 %bf.set.i.i23, ptr %5, align 8
  %cmp12.i.i24 = icmp eq i64 %bf.shl.i.i21, 0
  br i1 %cmp12.i.i24, label %if.then13.i.i25, label %_ZN4cvc58internal12NodeTemplateILb1EED2Ev.exit

if.then13.i.i25:                                  ; preds = %if.then.i.i19
  invoke void @_ZN4cvc58internal4expr9NodeValue15markForDeletionEv(ptr noundef nonnull align 8 dereferenceable(16) %5)
          to label %_ZN4cvc58internal12NodeTemplateILb1EED2Ev.exit unwind label %terminate.lpad.i

terminate.lpad.i:                                 ; preds = %if.then13.i.i25
  %7 = landingpad { ptr, i32 }
          catch ptr null
  %8 = extractvalue { ptr, i32 } %7, 0
  call void @__clang_call_terminate(ptr %8) #19
  unreachable

_ZN4cvc58internal12NodeTemplateILb1EED2Ev.exit:   ; preds = %invoke.cont6, %if.then.i.i19, %if.then13.i.i25
  %9 = load ptr, ptr %agg.tmp, align 8
  %bf.load.i.i26 = load i64, ptr %9, align 8
  %10 = and i64 %bf.load.i.i26, 1152920405095219200
  %cmp.not.i.i27 = icmp eq i64 %10, 1152920405095219200
  br i1 %cmp.not.i.i27, label %_ZN4cvc58internal12NodeTemplateILb1EED2Ev.exit36, label %if.then.i.i28

if.then.i.i28:                                    ; preds = %_ZN4cvc58internal12NodeTemplateILb1EED2Ev.exit
  %bf.value.i.i29 = add i64 %bf.load.i.i26, 1152920405095219200
  %bf.shl.i.i30 = and i64 %bf.value.i.i29, 1152920405095219200
  %bf.clear7.i.i31 = and i64 %bf.load.i.i26, -1152920405095219201
  %bf.set.i.i32 = or disjoint i64 %bf.shl.i.i30, %bf.clear7.i.i31
  store i64 %bf.set.i.i32, ptr %9, align 8
  %cmp12.i.i33 = icmp eq i64 %bf.shl.i.i30, 0
  br i1 %cmp12.i.i33, label %if.then13.i.i34, label %_ZN4cvc58internal12NodeTemplateILb1EED2Ev.exit36

if.then13.i.i34:                                  ; preds = %if.then.i.i28
  invoke void @_ZN4cvc58internal4expr9NodeValue15markForDeletionEv(ptr noundef nonnull align 8 dereferenceable(16) %9)
          to label %_ZN4cvc58internal12NodeTemplateILb1EED2Ev.exit36 unwind label %terminate.lpad.i35

terminate.lpad.i35:                               ; preds = %if.then13.i.i34
  %11 = landingpad { ptr, i32 }
          catch ptr null
  %12 = extractvalue { ptr, i32 } %11, 0
  call void @__clang_call_terminate(ptr %12) #19
  unreachable

_ZN4cvc58internal12NodeTemplateILb1EED2Ev.exit36: ; preds = %_ZN4cvc58internal12NodeTemplateILb1EED2Ev.exit, %if.then.i.i28, %if.then13.i.i34
  %13 = load ptr, ptr %_M_parent.i.i.i.i.i, align 8
  invoke void @_ZNSt8_Rb_treeIjSt4pairIKjbESt10_Select1stIS2_ESt4lessIjESaIS2_EE8_M_eraseEPSt13_Rb_tree_nodeIS2_E(ptr noundef nonnull align 8 dereferenceable(48) %cexc, ptr noundef %13)
          to label %_ZNSt3mapIjbSt4lessIjESaISt4pairIKjbEEED2Ev.exit unwind label %terminate.lpad.i.i

terminate.lpad.i.i:                               ; preds = %_ZN4cvc58internal12NodeTemplateILb1EED2Ev.exit36
  %14 = landingpad { ptr, i32 }
          catch ptr null
  %15 = extractvalue { ptr, i32 } %14, 0
  call void @__clang_call_terminate(ptr %15) #19
  unreachable

_ZNSt3mapIjbSt4lessIjESaISt4pairIKjbEEED2Ev.exit: ; preds = %_ZN4cvc58internal12NodeTemplateILb1EED2Ev.exit36
  ret void

lpad:                                             ; preds = %if.then13.i.i
  %16 = landingpad { ptr, i32 }
          cleanup
  br label %ehcleanup7

lpad3:                                            ; preds = %if.then13.i.i9
  %17 = landingpad { ptr, i32 }
          cleanup
  br label %ehcleanup

lpad5:                                            ; preds = %invoke.cont4
  %18 = landingpad { ptr, i32 }
          cleanup
  call void @_ZN4cvc58internal12NodeTemplateILb1EED2Ev(ptr noundef nonnull align 8 dereferenceable(8) %agg.tmp2) #20
  br label %ehcleanup

ehcleanup:                                        ; preds = %lpad5, %lpad3
  %.pn = phi { ptr, i32 } [ %18, %lpad5 ], [ %17, %lpad3 ]
  call void @_ZN4cvc58internal12NodeTemplateILb1EED2Ev(ptr noundef nonnull align 8 dereferenceable(8) %agg.tmp) #20
  br label %ehcleanup7

ehcleanup7:                                       ; preds = %ehcleanup, %lpad
  %.pn.pn = phi { ptr, i32 } [ %.pn, %ehcleanup ], [ %16, %lpad ]
  call void @_ZNSt3mapIjbSt4lessIjESaISt4pairIKjbEEED2Ev(ptr noundef nonnull align 8 dereferenceable(48) %cexc) #20
  resume { ptr, i32 } %.pn.pn
}